target datalayout = "e-m:e-p270:32:32-p271:32:32-p272:64:64-i64:64-i128:128-f80:128-n8:16:32:64-S128"
target triple = "x86_64-pc-linux-gnu"

%class.SignatureStream = type { ptr, i32, i32, i32, i32, i8, i32, ptr, ptr }
%class.Handle = type { ptr }
%class.NoSafepointVerifier = type { ptr }
%class.ThreadShadow = type <{ ptr, ptr, ptr, i32, [4 x i8] }>

; Function Attrs: mustprogress nounwind uwtable
define linkonce_odr hidden noundef zeroext i1 @_Z17is_reference_type9BasicTypeb(i8 noundef zeroext %0, i1 noundef zeroext %1) #1 comdat {
  %3 = alloca i8, align 1
  %4 = alloca i8, align 1
  store i8 %0, ptr %3, align 1
  %5 = zext i1 %1 to i8
  store i8 %5, ptr %4, align 1
  %6 = load i8, ptr %3, align 1
  %7 = zext i8 %6 to i32
  %8 = icmp eq i32 %7, 12
  br i1 %8, label %22, label %9

9:                                                ; preds = %2
  %10 = load i8, ptr %3, align 1
  %11 = zext i8 %10 to i32
  %12 = icmp eq i32 %11, 13
  br i1 %12, label %22, label %13

13:                                               ; preds = %9
  %14 = load i8, ptr %4, align 1
  %15 = trunc i8 %14 to i1
  br i1 %15, label %16, label %20

16:                                               ; preds = %13
  %17 = load i8, ptr %3, align 1
  %18 = zext i8 %17 to i32
  %19 = icmp eq i32 %18, 16
  br label %20

20:                                               ; preds = %16, %13
  %21 = phi i1 [ false, %13 ], [ %19, %16 ]
  br label %22

22:                                               ; preds = %20, %9, %2
  %23 = phi i1 [ true, %9 ], [ true, %2 ], [ %21, %20 ]
  ret i1 %23
}

; Function Attrs: mustprogress nounwind uwtable
define linkonce_odr hidden void @_ZN19NoSafepointVerifierD2Ev(ptr noundef nonnull align 8 dereferenceable(8) %0) unnamed_addr #1 comdat align 2 {
  %2 = alloca ptr, align 8
  store ptr %0, ptr %2, align 8
  ret void
}

; Function Attrs: mustprogress nounwind uwtable
define linkonce_odr hidden void @_ZN19NoSafepointVerifierC2Ev(ptr noundef nonnull align 8 dereferenceable(8) %0) unnamed_addr #1 comdat align 2 {
  %2 = alloca ptr, align 8
  store ptr %0, ptr %2, align 8
  ret void
}

; Function Attrs: mustprogress nounwind uwtable
define linkonce_odr hidden noundef zeroext i1 @_ZNK12ThreadShadow21has_pending_exceptionEv(ptr noundef nonnull align 8 dereferenceable(28) %0) #1 comdat align 2 {
  %2 = alloca ptr, align 8
  store ptr %0, ptr %2, align 8
  %3 = load ptr, ptr %2, align 8
  %4 = getelementptr inbounds %class.ThreadShadow, ptr %3, i32 0, i32 1
  %5 = load ptr, ptr %4, align 8
  %6 = icmp ne ptr %5, null
  ret i1 %6
}

; Function Attrs: mustprogress nounwind uwtable
define linkonce_odr hidden noundef ptr @_ZN15SignatureStream9as_symbolEv(ptr noundef nonnull align 8 dereferenceable(48) %0) #1 comdat align 2 {
  %2 = alloca ptr, align 8
  store ptr %0, ptr %2, align 8
  %3 = load ptr, ptr %2, align 8
  %4 = call noundef ptr @_ZN15SignatureStream11find_symbolEv(ptr noundef nonnull align 8 dereferenceable(48) %3)
  ret ptr %4
}

; Function Attrs: mustprogress nounwind uwtable
define linkonce_odr hidden noundef zeroext i1 @_ZNK15SignatureStream12is_referenceEv(ptr noundef nonnull align 8 dereferenceable(48) %0) #1 comdat align 2 {
  %2 = alloca ptr, align 8
  store ptr %0, ptr %2, align 8
  %3 = load ptr, ptr %2, align 8
  %4 = getelementptr inbounds %class.SignatureStream, ptr %3, i32 0, i32 5
  %5 = load i8, ptr %4, align 8
  %6 = call noundef zeroext i1 @_Z17is_reference_type9BasicTypeb(i8 noundef zeroext %5, i1 noundef zeroext false)
  ret i1 %6
}

; Function Attrs: mustprogress nounwind uwtable
define hidden noundef ptr @_ZN15SignatureStream8as_klassE6HandleS0_NS_11FailureModeEP10JavaThread(ptr noundef nonnull align 8 dereferenceable(48) %0, ptr %1, ptr %2, i32 noundef %3, ptr noundef %4) #1 align 2 {
  %6 = alloca ptr, align 8
  %7 = alloca %class.Handle, align 8
  %8 = alloca %class.Handle, align 8
  %9 = alloca ptr, align 8
  %10 = alloca i32, align 4
  %11 = alloca ptr, align 8
  %12 = alloca ptr, align 8
  %13 = alloca ptr, align 8
  %14 = alloca %class.Handle, align 8
  %15 = alloca %class.Handle, align 8
  %16 = alloca %class.NoSafepointVerifier, align 8
  %17 = alloca %class.Handle, align 8
  %18 = alloca %class.Handle, align 8
  %19 = alloca i8, align 1
  %20 = alloca %class.Handle, align 8
  %21 = alloca %class.Handle, align 8
  %22 = getelementptr inbounds %class.Handle, ptr %7, i32 0, i32 0
  store ptr %1, ptr %22, align 8
  %23 = getelementptr inbounds %class.Handle, ptr %8, i32 0, i32 0
  store ptr %2, ptr %23, align 8
  store ptr %0, ptr %9, align 8
  store i32 %3, ptr %10, align 4
  store ptr %4, ptr %11, align 8
  %24 = load ptr, ptr %9, align 8
  %25 = call noundef zeroext i1 @_ZNK15SignatureStream12is_referenceEv(ptr noundef nonnull align 8 dereferenceable(48) %24)
  br i1 %25, label %27, label %26

26:                                               ; preds = %5
  store ptr null, ptr %6, align 8
  br label %75

27:                                               ; preds = %5
  %28 = call noundef ptr @_ZN15SignatureStream9as_symbolEv(ptr noundef nonnull align 8 dereferenceable(48) %24)
  store ptr %28, ptr %12, align 8
  store ptr null, ptr %13, align 8
  %29 = load i32, ptr %10, align 4
  %30 = icmp eq i32 %29, 0
  br i1 %30, label %31, label %43

31:                                               ; preds = %27
  %32 = load ptr, ptr %12, align 8
  call void @llvm.memcpy.p0.p0.i64(ptr align 8 %14, ptr align 8 %7, i64 8, i1 false)
  call void @llvm.memcpy.p0.p0.i64(ptr align 8 %15, ptr align 8 %8, i64 8, i1 false)
  %33 = load ptr, ptr %11, align 8
  %34 = getelementptr inbounds %class.Handle, ptr %14, i32 0, i32 0
  %35 = load ptr, ptr %34, align 8
  %36 = getelementptr inbounds %class.Handle, ptr %15, i32 0, i32 0
  %37 = load ptr, ptr %36, align 8
  %38 = call noundef ptr @_ZN16SystemDictionary15resolve_or_nullEP6Symbol6HandleS2_P10JavaThread(ptr noundef %32, ptr %35, ptr %37, ptr noundef %33)
  store ptr %38, ptr %13, align 8
  %39 = load ptr, ptr %11, align 8
  %40 = call noundef zeroext i1 @_ZNK12ThreadShadow21has_pending_exceptionEv(ptr noundef nonnull align 8 dereferenceable(28) %39)
  br i1 %40, label %41, label %42

41:                                               ; preds = %31
  store ptr null, ptr %6, align 8
  br label %75

42:                                               ; preds = %31
  br label %73

43:                                               ; preds = %27
  %44 = load i32, ptr %10, align 4
  %45 = icmp eq i32 %44, 2
  br i1 %45, label %46, label %55

46:                                               ; preds = %43
  call void @_ZN19NoSafepointVerifierC2Ev(ptr noundef nonnull align 8 dereferenceable(8) %16)
  %47 = load ptr, ptr %11, align 8
  %48 = load ptr, ptr %12, align 8
  call void @llvm.memcpy.p0.p0.i64(ptr align 8 %17, ptr align 8 %7, i64 8, i1 false)
  call void @llvm.memcpy.p0.p0.i64(ptr align 8 %18, ptr align 8 %8, i64 8, i1 false)
  %49 = getelementptr inbounds %class.Handle, ptr %17, i32 0, i32 0
  %50 = load ptr, ptr %49, align 8
  %51 = getelementptr inbounds %class.Handle, ptr %18, i32 0, i32 0
  %52 = load ptr, ptr %51, align 8
  %53 = call noundef ptr @_ZN16SystemDictionary19find_instance_klassEP6ThreadP6Symbol6HandleS4_(ptr noundef %47, ptr noundef %48, ptr %50, ptr %52)
  store ptr %53, ptr %13, align 8
  %54 = load ptr, ptr %13, align 8
  store ptr %54, ptr %6, align 8
  call void @_ZN19NoSafepointVerifierD2Ev(ptr noundef nonnull align 8 dereferenceable(8) %16) #7
  br label %75

55:                                               ; preds = %43
  %56 = load i32, ptr %10, align 4
  %57 = icmp eq i32 %56, 1
  %58 = zext i1 %57 to i8
  store i8 %58, ptr %19, align 1
  %59 = load ptr, ptr %12, align 8
  call void @llvm.memcpy.p0.p0.i64(ptr align 8 %20, ptr align 8 %7, i64 8, i1 false)
  call void @llvm.memcpy.p0.p0.i64(ptr align 8 %21, ptr align 8 %8, i64 8, i1 false)
  %60 = load i8, ptr %19, align 1
  %61 = trunc i8 %60 to i1
  %62 = load ptr, ptr %11, align 8
  %63 = getelementptr inbounds %class.Handle, ptr %20, i32 0, i32 0
  %64 = load ptr, ptr %63, align 8
  %65 = getelementptr inbounds %class.Handle, ptr %21, i32 0, i32 0
  %66 = load ptr, ptr %65, align 8
  %67 = call noundef ptr @_ZN16SystemDictionary15resolve_or_failEP6Symbol6HandleS2_bP10JavaThread(ptr noundef %59, ptr %64, ptr %66, i1 noundef zeroext %61, ptr noundef %62)
  store ptr %67, ptr %13, align 8
  %68 = load ptr, ptr %11, align 8
  %69 = call noundef zeroext i1 @_ZNK12ThreadShadow21has_pending_exceptionEv(ptr noundef nonnull align 8 dereferenceable(28) %68)
  br i1 %69, label %70, label %71

70:                                               ; preds = %55
  store ptr null, ptr %6, align 8
  br label %75

71:                                               ; preds = %55
  br label %72

72:                                               ; preds = %71
  br label %73

73:                                               ; preds = %72, %42
  %74 = load ptr, ptr %13, align 8
  store ptr %74, ptr %6, align 8
  br label %75

75:                                               ; preds = %73, %70, %46, %41, %26
  %76 = load ptr, ptr %6, align 8
  ret ptr %76
}