; Function Attrs: mustprogress nounwind uwtable
define hidden noundef ptr @_ZN15SignatureStream8as_klassE6HandleS0_NS_11FailureModeEP10JavaThread(ptr nocapture noundef nonnull align 8 dereferenceable(48) %0, ptr %1, ptr %2, i32 noundef %3, ptr noundef %4) local_unnamed_addr #1 align 2 {
  %6 = getelementptr inbounds i8, ptr %0, i64 24
  %7 = load i8, ptr %6, align 8
  %8 = and i8 %7, -2
  %or.cond.i.i = icmp eq i8 %8, 12
  br i1 %or.cond.i.i, label %9, label %23

9:                                                ; preds = %5
  %10 = tail call noundef ptr @_ZN15SignatureStream11find_symbolEv(ptr noundef nonnull align 8 dereferenceable(48) %0)
  switch i32 %3, label %17 [
    i32 0, label %11
    i32 2, label %15
  ]

11:                                               ; preds = %9
  %12 = tail call noundef ptr @_ZN16SystemDictionary15resolve_or_nullEP6Symbol6HandleS2_P10JavaThread(ptr noundef %10, ptr %1, ptr %2, ptr noundef %4) #14
  %13 = getelementptr inbounds i8, ptr %4, i64 8
  %14 = load ptr, ptr %13, align 8
  %.not = icmp eq ptr %14, null
  br i1 %.not, label %22, label %23

15:                                               ; preds = %9
  %16 = tail call noundef ptr @_ZN16SystemDictionary19find_instance_klassEP6ThreadP6Symbol6HandleS4_(ptr noundef %4, ptr noundef %10, ptr %1, ptr %2) #14
  br label %23

17:                                               ; preds = %9
  %18 = icmp eq i32 %3, 1
  %19 = tail call noundef ptr @_ZN16SystemDictionary15resolve_or_failEP6Symbol6HandleS2_bP10JavaThread(ptr noundef %10, ptr %1, ptr %2, i1 noundef zeroext %18, ptr noundef %4) #14
  %20 = getelementptr inbounds i8, ptr %4, i64 8
  %21 = load ptr, ptr %20, align 8
  %.not24 = icmp eq ptr %21, null
  br i1 %.not24, label %22, label %23

22:                                               ; preds = %17, %11
  %.022 = phi ptr [ %12, %11 ], [ %19, %17 ]
  br label %23

23:                                               ; preds = %17, %11, %5, %22, %15
  %.0 = phi ptr [ %.022, %22 ], [ %16, %15 ], [ null, %5 ], [ null, %11 ], [ null, %17 ]
  ret ptr %.0
}